; ModuleID = '63/1610.c'
source_filename = "63/1610.c"
target datalayout = "e-m:e-p270:32:32-p271:32:32-p272:64:64-i64:64-f80:128-n8:16:32:64-S128"
target triple = "x86_64-pc-linux-gnu"

@.str = private unnamed_addr constant [6 x i8] c"%d %d\00", align 1
@.str.1 = private unnamed_addr constant [3 x i8] c"%d\00", align 1
@.str.2 = private unnamed_addr constant [4 x i8] c"%d \00", align 1
@.str.3 = private unnamed_addr constant [2 x i8] c"\0A\00", align 1

; Function Attrs: noinline nounwind uwtable
define dso_local i32 @main() #0 {
  %1 = alloca i32, align 4
  %2 = alloca i32*, align 8
  %3 = alloca i32*, align 8
  %4 = alloca i32*, align 8
  %5 = alloca i32, align 4
  %6 = alloca i32, align 4
  %7 = alloca i32, align 4
  %8 = alloca i32, align 4
  %9 = alloca i32, align 4
  %10 = alloca i32, align 4
  %11 = alloca i32, align 4
  %12 = alloca i32, align 4
  %13 = alloca i32, align 4
  %14 = alloca i32, align 4
  %15 = alloca i32, align 4
  %16 = alloca i32, align 4
  %17 = alloca i32, align 4
  %18 = alloca i32, align 4
  store i32 0, i32* %1, align 4
  store i32* null, i32** %2, align 8
  store i32* null, i32** %3, align 8
  store i32* null, i32** %4, align 8
  store i32 0, i32* %5, align 4
  store i32 0, i32* %6, align 4
  store i32 0, i32* %7, align 4
  store i32 0, i32* %8, align 4
  %19 = call i32 (i8*, ...) @__isoc99_scanf(i8* getelementptr inbounds ([6 x i8], [6 x i8]* @.str, i64 0, i64 0), i32* %5, i32* %7)
  %20 = load i32, i32* %5, align 4
  %21 = load i32, i32* %7, align 4
  %22 = mul nsw i32 %20, %21
  %23 = sext i32 %22 to i64
  %24 = mul i64 %23, 4
  %25 = call noalias i8* @malloc(i64 %24) #3
  %26 = bitcast i8* %25 to i32*
  store i32* %26, i32** %2, align 8
  store i32 0, i32* %9, align 4
  br label %27

27:                                               ; preds = %50, %0
  %28 = load i32, i32* %9, align 4
  %29 = load i32, i32* %5, align 4
  %30 = icmp slt i32 %28, %29
  br i1 %30, label %31, label %53

31:                                               ; preds = %27
  store i32 0, i32* %10, align 4
  br label %32

32:                                               ; preds = %46, %31
  %33 = load i32, i32* %10, align 4
  %34 = load i32, i32* %7, align 4
  %35 = icmp slt i32 %33, %34
  br i1 %35, label %36, label %49

36:                                               ; preds = %32
  %37 = load i32*, i32** %2, align 8
  %38 = load i32, i32* %9, align 4
  %39 = load i32, i32* %7, align 4
  %40 = mul nsw i32 %38, %39
  %41 = load i32, i32* %10, align 4
  %42 = add nsw i32 %40, %41
  %43 = sext i32 %42 to i64
  %44 = getelementptr inbounds i32, i32* %37, i64 %43
  %45 = call i32 (i8*, ...) @__isoc99_scanf(i8* getelementptr inbounds ([3 x i8], [3 x i8]* @.str.1, i64 0, i64 0), i32* %44)
  br label %46

46:                                               ; preds = %36
  %47 = load i32, i32* %10, align 4
  %48 = add nsw i32 %47, 1
  store i32 %48, i32* %10, align 4
  br label %32

49:                                               ; preds = %32
  br label %50

50:                                               ; preds = %49
  %51 = load i32, i32* %9, align 4
  %52 = add nsw i32 %51, 1
  store i32 %52, i32* %9, align 4
  br label %27

53:                                               ; preds = %27
  %54 = call i32 (i8*, ...) @__isoc99_scanf(i8* getelementptr inbounds ([6 x i8], [6 x i8]* @.str, i64 0, i64 0), i32* %6, i32* %8)
  %55 = load i32, i32* %6, align 4
  %56 = load i32, i32* %8, align 4
  %57 = mul nsw i32 %55, %56
  %58 = sext i32 %57 to i64
  %59 = mul i64 %58, 4
  %60 = call noalias i8* @malloc(i64 %59) #3
  %61 = bitcast i8* %60 to i32*
  store i32* %61, i32** %3, align 8
  store i32 0, i32* %11, align 4
  br label %62

62:                                               ; preds = %85, %53
  %63 = load i32, i32* %11, align 4
  %64 = load i32, i32* %6, align 4
  %65 = icmp slt i32 %63, %64
  br i1 %65, label %66, label %88

66:                                               ; preds = %62
  store i32 0, i32* %12, align 4
  br label %67

67:                                               ; preds = %81, %66
  %68 = load i32, i32* %12, align 4
  %69 = load i32, i32* %8, align 4
  %70 = icmp slt i32 %68, %69
  br i1 %70, label %71, label %84

71:                                               ; preds = %67
  %72 = load i32*, i32** %3, align 8
  %73 = load i32, i32* %11, align 4
  %74 = load i32, i32* %8, align 4
  %75 = mul nsw i32 %73, %74
  %76 = load i32, i32* %12, align 4
  %77 = add nsw i32 %75, %76
  %78 = sext i32 %77 to i64
  %79 = getelementptr inbounds i32, i32* %72, i64 %78
  %80 = call i32 (i8*, ...) @__isoc99_scanf(i8* getelementptr inbounds ([3 x i8], [3 x i8]* @.str.1, i64 0, i64 0), i32* %79)
  br label %81

81:                                               ; preds = %71
  %82 = load i32, i32* %12, align 4
  %83 = add nsw i32 %82, 1
  store i32 %83, i32* %12, align 4
  br label %67

84:                                               ; preds = %67
  br label %85

85:                                               ; preds = %84
  %86 = load i32, i32* %11, align 4
  %87 = add nsw i32 %86, 1
  store i32 %87, i32* %11, align 4
  br label %62

88:                                               ; preds = %62
  %89 = load i32, i32* %5, align 4
  %90 = load i32, i32* %8, align 4
  %91 = mul nsw i32 %89, %90
  %92 = sext i32 %91 to i64
  %93 = mul i64 %92, 4
  %94 = call noalias i8* @malloc(i64 %93) #3
  %95 = bitcast i8* %94 to i32*
  store i32* %95, i32** %4, align 8
  store i32 0, i32* %13, align 4
  store i32 0, i32* %14, align 4
  br label %96

96:                                               ; preds = %149, %88
  %97 = load i32, i32* %14, align 4
  %98 = load i32, i32* %5, align 4
  %99 = icmp slt i32 %97, %98
  br i1 %99, label %100, label %152

100:                                              ; preds = %96
  store i32 0, i32* %15, align 4
  br label %101

101:                                              ; preds = %145, %100
  %102 = load i32, i32* %15, align 4
  %103 = load i32, i32* %8, align 4
  %104 = icmp slt i32 %102, %103
  br i1 %104, label %105, label %148

105:                                              ; preds = %101
  store i32 0, i32* %13, align 4
  store i32 0, i32* %16, align 4
  br label %106

106:                                              ; preds = %132, %105
  %107 = load i32, i32* %16, align 4
  %108 = load i32, i32* %7, align 4
  %109 = icmp slt i32 %107, %108
  br i1 %109, label %110, label %135

110:                                              ; preds = %106
  %111 = load i32, i32* %13, align 4
  %112 = load i32*, i32** %2, align 8
  %113 = load i32, i32* %14, align 4
  %114 = load i32, i32* %7, align 4
  %115 = mul nsw i32 %113, %114
  %116 = load i32, i32* %16, align 4
  %117 = add nsw i32 %115, %116
  %118 = sext i32 %117 to i64
  %119 = getelementptr inbounds i32, i32* %112, i64 %118
  %120 = load i32, i32* %119, align 4
  %121 = load i32*, i32** %3, align 8
  %122 = load i32, i32* %16, align 4
  %123 = load i32, i32* %8, align 4
  %124 = mul nsw i32 %122, %123
  %125 = load i32, i32* %15, align 4
  %126 = add nsw i32 %124, %125
  %127 = sext i32 %126 to i64
  %128 = getelementptr inbounds i32, i32* %121, i64 %127
  %129 = load i32, i32* %128, align 4
  %130 = mul nsw i32 %120, %129
  %131 = add nsw i32 %111, %130
  store i32 %131, i32* %13, align 4
  br label %132

132:                                              ; preds = %110
  %133 = load i32, i32* %16, align 4
  %134 = add nsw i32 %133, 1
  store i32 %134, i32* %16, align 4
  br label %106

135:                                              ; preds = %106
  %136 = load i32, i32* %13, align 4
  %137 = load i32*, i32** %4, align 8
  %138 = load i32, i32* %14, align 4
  %139 = load i32, i32* %8, align 4
  %140 = mul nsw i32 %138, %139
  %141 = load i32, i32* %15, align 4
  %142 = add nsw i32 %140, %141
  %143 = sext i32 %142 to i64
  %144 = getelementptr inbounds i32, i32* %137, i64 %143
  store i32 %136, i32* %144, align 4
  br label %145

145:                                              ; preds = %135
  %146 = load i32, i32* %15, align 4
  %147 = add nsw i32 %146, 1
  store i32 %147, i32* %15, align 4
  br label %101

148:                                              ; preds = %101
  br label %149

149:                                              ; preds = %148
  %150 = load i32, i32* %14, align 4
  %151 = add nsw i32 %150, 1
  store i32 %151, i32* %14, align 4
  br label %96

152:                                              ; preds = %96
  store i32 0, i32* %17, align 4
  br label %153

153:                                              ; preds = %189, %152
  %154 = load i32, i32* %17, align 4
  %155 = load i32, i32* %5, align 4
  %156 = icmp slt i32 %154, %155
  br i1 %156, label %157, label %192

157:                                              ; preds = %153
  store i32 0, i32* %18, align 4
  br label %158

158:                                              ; preds = %174, %157
  %159 = load i32, i32* %18, align 4
  %160 = load i32, i32* %8, align 4
  %161 = sub nsw i32 %160, 1
  %162 = icmp slt i32 %159, %161
  br i1 %162, label %163, label %177

163:                                              ; preds = %158
  %164 = load i32*, i32** %4, align 8
  %165 = load i32, i32* %17, align 4
  %166 = load i32, i32* %8, align 4
  %167 = mul nsw i32 %165, %166
  %168 = load i32, i32* %18, align 4
  %169 = add nsw i32 %167, %168
  %170 = sext i32 %169 to i64
  %171 = getelementptr inbounds i32, i32* %164, i64 %170
  %172 = load i32, i32* %171, align 4
  %173 = call i32 (i8*, ...) @printf(i8* getelementptr inbounds ([4 x i8], [4 x i8]* @.str.2, i64 0, i64 0), i32 %172)
  br label %174

174:                                              ; preds = %163
  %175 = load i32, i32* %18, align 4
  %176 = add nsw i32 %175, 1
  store i32 %176, i32* %18, align 4
  br label %158

177:                                              ; preds = %158
  %178 = load i32*, i32** %4, align 8
  %179 = load i32, i32* %17, align 4
  %180 = load i32, i32* %8, align 4
  %181 = mul nsw i32 %179, %180
  %182 = load i32, i32* %18, align 4
  %183 = add nsw i32 %181, %182
  %184 = sext i32 %183 to i64
  %185 = getelementptr inbounds i32, i32* %178, i64 %184
  %186 = load i32, i32* %185, align 4
  %187 = call i32 (i8*, ...) @printf(i8* getelementptr inbounds ([3 x i8], [3 x i8]* @.str.1, i64 0, i64 0), i32 %186)
  %188 = call i32 (i8*, ...) @printf(i8* getelementptr inbounds ([2 x i8], [2 x i8]* @.str.3, i64 0, i64 0))
  br label %189

189:                                              ; preds = %177
  %190 = load i32, i32* %17, align 4
  %191 = add nsw i32 %190, 1
  store i32 %191, i32* %17, align 4
  br label %153

192:                                              ; preds = %153
  %193 = load i32, i32* %1, align 4
  ret i32 %193
}

declare dso_local i32 @__isoc99_scanf(i8*, ...) #1

; Function Attrs: nounwind
declare dso_local noalias i8* @malloc(i64) #2

declare dso_local i32 @printf(i8*, ...) #1


!llvm.module.flags = !{!0}
!llvm.ident = !{!1}

!0 = !{i32 1, !"wchar_size", i32 4}
!1 = !{!"clang version 10.0.0-4ubuntu1 "}
